; ModuleID = '56/1037.c'
source_filename = "56/1037.c"
target datalayout = "e-m:e-p270:32:32-p271:32:32-p272:64:64-i64:64-f80:128-n8:16:32:64-S128"
target triple = "x86_64-pc-linux-gnu"

@.str = private unnamed_addr constant [3 x i8] c"%d\00", align 1
@.str.1 = private unnamed_addr constant [4 x i8] c"%d\0A\00", align 1

; Function Attrs: noinline nounwind uwtable
define dso_local i32 @main() #0 {
  %1 = alloca i32, align 4
  %2 = alloca i32, align 4
  %3 = alloca [5 x i32], align 16
  %4 = alloca i32, align 4
  %5 = alloca i32, align 4
  store i32 0, i32* %1, align 4
  store i32 0, i32* %4, align 4
  %6 = call i32 (i8*, ...) @__isoc99_scanf(i8* getelementptr inbounds ([3 x i8], [3 x i8]* @.str, i64 0, i64 0), i32* %2)
  br label %7

7:                                                ; preds = %10, %0
  %8 = load i32, i32* %2, align 4
  %9 = icmp ne i32 %8, 0
  br i1 %9, label %10, label %20

10:                                               ; preds = %7
  %11 = load i32, i32* %2, align 4
  %12 = srem i32 %11, 10
  %13 = load i32, i32* %4, align 4
  %14 = sext i32 %13 to i64
  %15 = getelementptr inbounds [5 x i32], [5 x i32]* %3, i64 0, i64 %14
  store i32 %12, i32* %15, align 4
  %16 = load i32, i32* %2, align 4
  %17 = sdiv i32 %16, 10
  store i32 %17, i32* %2, align 4
  %18 = load i32, i32* %4, align 4
  %19 = add nsw i32 %18, 1
  store i32 %19, i32* %4, align 4
  br label %7

20:                                               ; preds = %7
  store i32 0, i32* %2, align 4
  store i32 0, i32* %5, align 4
  br label %21

21:                                               ; preds = %34, %20
  %22 = load i32, i32* %5, align 4
  %23 = load i32, i32* %4, align 4
  %24 = icmp slt i32 %22, %23
  br i1 %24, label %25, label %37

25:                                               ; preds = %21
  %26 = load i32, i32* %5, align 4
  %27 = sext i32 %26 to i64
  %28 = getelementptr inbounds [5 x i32], [5 x i32]* %3, i64 0, i64 %27
  %29 = load i32, i32* %28, align 4
  %30 = load i32, i32* %2, align 4
  %31 = add nsw i32 %30, %29
  store i32 %31, i32* %2, align 4
  %32 = load i32, i32* %2, align 4
  %33 = mul nsw i32 %32, 10
  store i32 %33, i32* %2, align 4
  br label %34

34:                                               ; preds = %25
  %35 = load i32, i32* %5, align 4
  %36 = add nsw i32 %35, 1
  store i32 %36, i32* %5, align 4
  br label %21

37:                                               ; preds = %21
  %38 = load i32, i32* %2, align 4
  %39 = sdiv i32 %38, 10
  store i32 %39, i32* %2, align 4
  %40 = load i32, i32* %2, align 4
  %41 = call i32 (i8*, ...) @printf(i8* getelementptr inbounds ([4 x i8], [4 x i8]* @.str.1, i64 0, i64 0), i32 %40)
  ret i32 0
}

declare dso_local i32 @__isoc99_scanf(i8*, ...) #1

declare dso_local i32 @printf(i8*, ...) #1


!llvm.module.flags = !{!0}
!llvm.ident = !{!1}

!0 = !{i32 1, !"wchar_size", i32 4}
!1 = !{!"clang version 10.0.0-4ubuntu1 "}
